; Function Attrs: nounwind sspstrong uwtable
define internal i64 @path_extname(i64 noundef %0) #0 {
  %2 = load i64, ptr @id_at_path, align 8, !tbaa !6
  %3 = tail call i64 @rb_ivar_get(i64 noundef %0, i64 noundef %2) #7
  %4 = icmp eq i64 %3, 0
  %5 = and i64 %3, 7
  %6 = icmp ne i64 %5, 0
  %7 = or i1 %4, %6
  br i1 %7, label %rbimpl_RB_TYPE_P_fastpath.exit.thread.i, label %rbimpl_RB_TYPE_P_fastpath.exit.i

rbimpl_RB_TYPE_P_fastpath.exit.i:                 ; preds = %1
  %8 = inttoptr i64 %3 to ptr
  %9 = load i64, ptr %8, align 8, !tbaa !10
  %10 = and i64 %9, 31
  %11 = icmp eq i64 %10, 5
  br i1 %11, label %get_strpath.exit, label %rbimpl_RB_TYPE_P_fastpath.exit.thread.i

rbimpl_RB_TYPE_P_fastpath.exit.thread.i:          ; preds = %rbimpl_RB_TYPE_P_fastpath.exit.i, %1
  %12 = load i64, ptr @rb_eTypeError, align 8, !tbaa !6
  tail call void (i64, ptr, ...) @rb_raise(i64 noundef %12, ptr noundef nonnull @.str.91) #9
  unreachable

get_strpath.exit:                                 ; preds = %rbimpl_RB_TYPE_P_fastpath.exit.i
  %13 = load i64, ptr @rb_cFile, align 8, !tbaa !6
  %14 = load i64, ptr @id_extname, align 8, !tbaa !6
  %15 = tail call i64 (i64, i64, i32, ...) @rb_funcall(i64 noundef %13, i64 noundef %14, i32 noundef 1, i64 noundef %3) #7
  ret i64 %15
}